target datalayout = "e-m:e-p270:32:32-p271:32:32-p272:64:64-i64:64-i128:128-f80:128-n8:16:32:64-S128"
target triple = "x86_64-pc-linux-gnu"

%"class.i18n::phonenumbers::StringPiece" = type { ptr, i64 }

; Function Attrs: mustprogress nounwind uwtable
define linkonce_odr dso_local void @_ZN4i18n12phonenumbers11StringPieceC2EPKcm(ptr noundef nonnull align 8 dereferenceable(16) %0, ptr noundef %1, i64 noundef %2) unnamed_addr #2 comdat align 2 {
  %4 = alloca ptr, align 8
  %5 = alloca ptr, align 8
  %6 = alloca i64, align 8
  store ptr %0, ptr %4, align 8, !tbaa !9
  store ptr %1, ptr %5, align 8, !tbaa !16
  store i64 %2, ptr %6, align 8, !tbaa !17
  %7 = load ptr, ptr %4, align 8
  %8 = getelementptr inbounds nuw %"class.i18n::phonenumbers::StringPiece", ptr %7, i32 0, i32 0
  %9 = load ptr, ptr %5, align 8, !tbaa !16
  store ptr %9, ptr %8, align 8, !tbaa !11
  %10 = getelementptr inbounds nuw %"class.i18n::phonenumbers::StringPiece", ptr %7, i32 0, i32 1
  %11 = load i64, ptr %6, align 8, !tbaa !17
  store i64 %11, ptr %10, align 8, !tbaa !15
  ret void
}

; Function Attrs: mustprogress uwtable
define dso_local { ptr, i64 } @_ZNK4i18n12phonenumbers11StringPiece6substrEmm(ptr noundef nonnull align 8 dereferenceable(16) %0, i64 noundef %1, i64 noundef %2) #0 align 2 {
  %4 = alloca %"class.i18n::phonenumbers::StringPiece", align 8
  %5 = alloca ptr, align 8
  %6 = alloca i64, align 8
  %7 = alloca i64, align 8
  store ptr %0, ptr %5, align 8, !tbaa !9
  store i64 %1, ptr %6, align 8, !tbaa !17
  store i64 %2, ptr %7, align 8, !tbaa !17
  %8 = load ptr, ptr %5, align 8
  %9 = load i64, ptr %6, align 8, !tbaa !17
  %10 = getelementptr inbounds nuw %"class.i18n::phonenumbers::StringPiece", ptr %8, i32 0, i32 1
  %11 = load i64, ptr %10, align 8, !tbaa !15
  %12 = icmp ugt i64 %9, %11
  br i1 %12, label %13, label %16

13:                                               ; preds = %3
  %14 = getelementptr inbounds nuw %"class.i18n::phonenumbers::StringPiece", ptr %8, i32 0, i32 1
  %15 = load i64, ptr %14, align 8, !tbaa !15
  store i64 %15, ptr %6, align 8, !tbaa !17
  br label %16

16:                                               ; preds = %13, %3
  %17 = load i64, ptr %7, align 8, !tbaa !17
  %18 = getelementptr inbounds nuw %"class.i18n::phonenumbers::StringPiece", ptr %8, i32 0, i32 1
  %19 = load i64, ptr %18, align 8, !tbaa !15
  %20 = load i64, ptr %6, align 8, !tbaa !17
  %21 = sub i64 %19, %20
  %22 = icmp ugt i64 %17, %21
  br i1 %22, label %23, label %28

23:                                               ; preds = %16
  %24 = getelementptr inbounds nuw %"class.i18n::phonenumbers::StringPiece", ptr %8, i32 0, i32 1
  %25 = load i64, ptr %24, align 8, !tbaa !15
  %26 = load i64, ptr %6, align 8, !tbaa !17
  %27 = sub i64 %25, %26
  store i64 %27, ptr %7, align 8, !tbaa !17
  br label %28

28:                                               ; preds = %23, %16
  %29 = getelementptr inbounds nuw %"class.i18n::phonenumbers::StringPiece", ptr %8, i32 0, i32 0
  %30 = load ptr, ptr %29, align 8, !tbaa !11
  %31 = load i64, ptr %6, align 8, !tbaa !17
  %32 = getelementptr inbounds nuw i8, ptr %30, i64 %31
  %33 = load i64, ptr %7, align 8, !tbaa !17
  call void @_ZN4i18n12phonenumbers11StringPieceC2EPKcm(ptr noundef nonnull align 8 dereferenceable(16) %4, ptr noundef %32, i64 noundef %33)
  %34 = load { ptr, i64 }, ptr %4, align 8
  ret { ptr, i64 } %34
}